; ModuleID = '36/767.c'
source_filename = "36/767.c"
target datalayout = "e-m:e-p270:32:32-p271:32:32-p272:64:64-i64:64-f80:128-n8:16:32:64-S128"
target triple = "x86_64-pc-linux-gnu"

@.str = private unnamed_addr constant [3 x i8] c"%s\00", align 1
@.str.1 = private unnamed_addr constant [5 x i8] c"YES\0A\00", align 1
@.str.2 = private unnamed_addr constant [4 x i8] c"NO\0A\00", align 1

; Function Attrs: noinline nounwind uwtable
define dso_local i32 @main() #0 {
  %1 = alloca i32, align 4
  %2 = alloca i32, align 4
  %3 = alloca i32, align 4
  %4 = alloca i32, align 4
  %5 = alloca [100 x i8], align 16
  %6 = alloca [100 x i8], align 16
  store i32 0, i32* %1, align 4
  store i32 1, i32* %4, align 4
  %7 = getelementptr inbounds [100 x i8], [100 x i8]* %5, i64 0, i64 0
  %8 = call i32 (i8*, ...) @__isoc99_scanf(i8* getelementptr inbounds ([3 x i8], [3 x i8]* @.str, i64 0, i64 0), i8* %7)
  %9 = getelementptr inbounds [100 x i8], [100 x i8]* %6, i64 0, i64 0
  %10 = call i32 (i8*, ...) @__isoc99_scanf(i8* getelementptr inbounds ([3 x i8], [3 x i8]* @.str, i64 0, i64 0), i8* %9)
  store i32 0, i32* %2, align 4
  br label %11

11:                                               ; preds = %48, %0
  %12 = load i32, i32* %2, align 4
  %13 = sext i32 %12 to i64
  %14 = getelementptr inbounds [100 x i8], [100 x i8]* %5, i64 0, i64 0
  %15 = call i64 @strlen(i8* %14) #3
  %16 = icmp ult i64 %13, %15
  br i1 %16, label %17, label %51

17:                                               ; preds = %11
  store i32 0, i32* %3, align 4
  br label %18

18:                                               ; preds = %44, %17
  %19 = load i32, i32* %3, align 4
  %20 = sext i32 %19 to i64
  %21 = getelementptr inbounds [100 x i8], [100 x i8]* %6, i64 0, i64 0
  %22 = call i64 @strlen(i8* %21) #3
  %23 = icmp ult i64 %20, %22
  br i1 %23, label %24, label %47

24:                                               ; preds = %18
  %25 = load i32, i32* %2, align 4
  %26 = sext i32 %25 to i64
  %27 = getelementptr inbounds [100 x i8], [100 x i8]* %5, i64 0, i64 %26
  %28 = load i8, i8* %27, align 1
  %29 = sext i8 %28 to i32
  %30 = load i32, i32* %3, align 4
  %31 = sext i32 %30 to i64
  %32 = getelementptr inbounds [100 x i8], [100 x i8]* %6, i64 0, i64 %31
  %33 = load i8, i8* %32, align 1
  %34 = sext i8 %33 to i32
  %35 = icmp eq i32 %29, %34
  br i1 %35, label %36, label %43

36:                                               ; preds = %24
  %37 = load i32, i32* %2, align 4
  %38 = sext i32 %37 to i64
  %39 = getelementptr inbounds [100 x i8], [100 x i8]* %5, i64 0, i64 %38
  store i8 32, i8* %39, align 1
  %40 = load i32, i32* %3, align 4
  %41 = sext i32 %40 to i64
  %42 = getelementptr inbounds [100 x i8], [100 x i8]* %6, i64 0, i64 %41
  store i8 32, i8* %42, align 1
  br label %43

43:                                               ; preds = %36, %24
  br label %44

44:                                               ; preds = %43
  %45 = load i32, i32* %3, align 4
  %46 = add nsw i32 %45, 1
  store i32 %46, i32* %3, align 4
  br label %18

47:                                               ; preds = %18
  br label %48

48:                                               ; preds = %47
  %49 = load i32, i32* %2, align 4
  %50 = add nsw i32 %49, 1
  store i32 %50, i32* %2, align 4
  br label %11

51:                                               ; preds = %11
  store i32 0, i32* %2, align 4
  br label %52

52:                                               ; preds = %67, %51
  %53 = load i32, i32* %2, align 4
  %54 = sext i32 %53 to i64
  %55 = getelementptr inbounds [100 x i8], [100 x i8]* %5, i64 0, i64 0
  %56 = call i64 @strlen(i8* %55) #3
  %57 = icmp ult i64 %54, %56
  br i1 %57, label %58, label %70

58:                                               ; preds = %52
  %59 = load i32, i32* %2, align 4
  %60 = sext i32 %59 to i64
  %61 = getelementptr inbounds [100 x i8], [100 x i8]* %5, i64 0, i64 %60
  %62 = load i8, i8* %61, align 1
  %63 = sext i8 %62 to i32
  %64 = icmp ne i32 %63, 32
  br i1 %64, label %65, label %66

65:                                               ; preds = %58
  store i32 0, i32* %4, align 4
  br label %70

66:                                               ; preds = %58
  br label %67

67:                                               ; preds = %66
  %68 = load i32, i32* %2, align 4
  %69 = add nsw i32 %68, 1
  store i32 %69, i32* %2, align 4
  br label %52

70:                                               ; preds = %65, %52
  store i32 0, i32* %3, align 4
  br label %71

71:                                               ; preds = %86, %70
  %72 = load i32, i32* %3, align 4
  %73 = sext i32 %72 to i64
  %74 = getelementptr inbounds [100 x i8], [100 x i8]* %6, i64 0, i64 0
  %75 = call i64 @strlen(i8* %74) #3
  %76 = icmp ult i64 %73, %75
  br i1 %76, label %77, label %89

77:                                               ; preds = %71
  %78 = load i32, i32* %3, align 4
  %79 = sext i32 %78 to i64
  %80 = getelementptr inbounds [100 x i8], [100 x i8]* %6, i64 0, i64 %79
  %81 = load i8, i8* %80, align 1
  %82 = sext i8 %81 to i32
  %83 = icmp ne i32 %82, 32
  br i1 %83, label %84, label %85

84:                                               ; preds = %77
  store i32 0, i32* %4, align 4
  br label %89

85:                                               ; preds = %77
  br label %86

86:                                               ; preds = %85
  %87 = load i32, i32* %3, align 4
  %88 = add nsw i32 %87, 1
  store i32 %88, i32* %3, align 4
  br label %71

89:                                               ; preds = %84, %71
  %90 = load i32, i32* %4, align 4
  %91 = icmp ne i32 %90, 0
  br i1 %91, label %92, label %94

92:                                               ; preds = %89
  %93 = call i32 (i8*, ...) @printf(i8* getelementptr inbounds ([5 x i8], [5 x i8]* @.str.1, i64 0, i64 0))
  br label %96

94:                                               ; preds = %89
  %95 = call i32 (i8*, ...) @printf(i8* getelementptr inbounds ([4 x i8], [4 x i8]* @.str.2, i64 0, i64 0))
  br label %96

96:                                               ; preds = %94, %92
  ret i32 0
}

declare dso_local i32 @__isoc99_scanf(i8*, ...) #1

; Function Attrs: nounwind readonly
declare dso_local i64 @strlen(i8*) #2

declare dso_local i32 @printf(i8*, ...) #1


!llvm.module.flags = !{!0}
!llvm.ident = !{!1}

!0 = !{i32 1, !"wchar_size", i32 4}
!1 = !{!"clang version 10.0.0-4ubuntu1 "}
